; Function Attrs: mustprogress uwtable
define internal noundef double @_ZN32pxrInternal_v0_24__pxrReserved__12_GLOBAL__N_121_TypedValueDataSourceIdE13GetTypedValueEf(ptr noundef nonnull align 8 dereferenceable(72) %0, float noundef %1) unnamed_addr #0 align 2 personality ptr @__gxx_personality_v0 {
  %3 = alloca %"class.pxrInternal_v0_24__pxrReserved__::VtValue", align 8
  %4 = getelementptr inbounds nuw i8, ptr %0, i64 8
  call fastcc void @_ZN32pxrInternal_v0_24__pxrReserved__12_GLOBAL__N_115_VelocityHelper9_GetValueEf(ptr dead_on_unwind noalias nonnull writable align 8 %3, ptr noundef nonnull align 8 dereferenceable(64) %4, float noundef %1)
  %5 = getelementptr inbounds nuw i8, ptr %3, i64 8
  %6 = load ptr, ptr %5, align 8
  %7 = ptrtoint ptr %6 to i64
  %.not.i = icmp eq ptr %6, null
  br i1 %.not.i, label %_ZN32pxrInternal_v0_24__pxrReserved__7VtValueD2Ev.exit, label %8

8:                                                ; preds = %2
  %9 = and i64 %7, -8
  %10 = inttoptr i64 %9 to ptr
  %11 = getelementptr inbounds nuw i8, ptr %10, i64 16
  %12 = load i32, ptr %11, align 8
  %13 = icmp eq i32 %12, 9
  br i1 %13, label %_ZNK32pxrInternal_v0_24__pxrReserved__7VtValue9IsHoldingIdEEbv.exit.thread9, label %14

14:                                               ; preds = %8
  %15 = and i64 %7, 4
  %.not.i.i = icmp eq i64 %15, 0
  br i1 %.not.i.i, label %_ZNK32pxrInternal_v0_24__pxrReserved__7VtValue9IsHoldingIdEEbv.exit.thread, label %16

16:                                               ; preds = %14
  %17 = invoke noundef zeroext i1 @_ZNK32pxrInternal_v0_24__pxrReserved__7VtValue11_TypeIsImplERKSt9type_info(ptr noundef nonnull align 8 dereferenceable(16) %3, ptr noundef nonnull align 8 dereferenceable(16) @_ZTId)
          to label %_ZNK32pxrInternal_v0_24__pxrReserved__7VtValue9IsHoldingIdEEbv.exit unwind label %27

_ZNK32pxrInternal_v0_24__pxrReserved__7VtValue9IsHoldingIdEEbv.exit: ; preds = %16
  %.pre11 = load ptr, ptr %5, align 8
  br i1 %17, label %_ZNK32pxrInternal_v0_24__pxrReserved__7VtValue9IsHoldingIdEEbv.exit._ZNK32pxrInternal_v0_24__pxrReserved__7VtValue9IsHoldingIdEEbv.exit.thread9_crit_edge, label %_ZNK32pxrInternal_v0_24__pxrReserved__7VtValue9IsHoldingIdEEbv.exit.thread

_ZNK32pxrInternal_v0_24__pxrReserved__7VtValue9IsHoldingIdEEbv.exit._ZNK32pxrInternal_v0_24__pxrReserved__7VtValue9IsHoldingIdEEbv.exit.thread9_crit_edge: ; preds = %_ZNK32pxrInternal_v0_24__pxrReserved__7VtValue9IsHoldingIdEEbv.exit
  %.pre = ptrtoint ptr %.pre11 to i64
  br label %_ZNK32pxrInternal_v0_24__pxrReserved__7VtValue9IsHoldingIdEEbv.exit.thread9

_ZNK32pxrInternal_v0_24__pxrReserved__7VtValue9IsHoldingIdEEbv.exit.thread9: ; preds = %_ZNK32pxrInternal_v0_24__pxrReserved__7VtValue9IsHoldingIdEEbv.exit._ZNK32pxrInternal_v0_24__pxrReserved__7VtValue9IsHoldingIdEEbv.exit.thread9_crit_edge, %8
  %.pre-phi = phi i64 [ %.pre, %_ZNK32pxrInternal_v0_24__pxrReserved__7VtValue9IsHoldingIdEEbv.exit._ZNK32pxrInternal_v0_24__pxrReserved__7VtValue9IsHoldingIdEEbv.exit.thread9_crit_edge ], [ %7, %8 ]
  %18 = phi ptr [ %.pre11, %_ZNK32pxrInternal_v0_24__pxrReserved__7VtValue9IsHoldingIdEEbv.exit._ZNK32pxrInternal_v0_24__pxrReserved__7VtValue9IsHoldingIdEEbv.exit.thread9_crit_edge ], [ %6, %8 ]
  %19 = and i64 %.pre-phi, 4
  %.not.i.i6 = icmp eq i64 %19, 0
  br i1 %.not.i.i6, label %_ZNKR32pxrInternal_v0_24__pxrReserved__7VtValue12UncheckedGetIdEERKT_v.exit, label %20

20:                                               ; preds = %_ZNK32pxrInternal_v0_24__pxrReserved__7VtValue9IsHoldingIdEEbv.exit.thread9
  %21 = and i64 %.pre-phi, -8
  %22 = inttoptr i64 %21 to ptr
  %23 = getelementptr inbounds nuw i8, ptr %22, i64 168
  %24 = load ptr, ptr %23, align 8
  %25 = invoke noundef ptr %24(ptr noundef nonnull align 8 dereferenceable(16) %3)
          to label %._ZNKR32pxrInternal_v0_24__pxrReserved__7VtValue12UncheckedGetIdEERKT_v.exit_crit_edge unwind label %27

._ZNKR32pxrInternal_v0_24__pxrReserved__7VtValue12UncheckedGetIdEERKT_v.exit_crit_edge: ; preds = %20
  %.pre10.pre = load ptr, ptr %5, align 8
  br label %_ZNKR32pxrInternal_v0_24__pxrReserved__7VtValue12UncheckedGetIdEERKT_v.exit

_ZNKR32pxrInternal_v0_24__pxrReserved__7VtValue12UncheckedGetIdEERKT_v.exit: ; preds = %._ZNKR32pxrInternal_v0_24__pxrReserved__7VtValue12UncheckedGetIdEERKT_v.exit_crit_edge, %_ZNK32pxrInternal_v0_24__pxrReserved__7VtValue9IsHoldingIdEEbv.exit.thread9
  %.pre10 = phi ptr [ %18, %_ZNK32pxrInternal_v0_24__pxrReserved__7VtValue9IsHoldingIdEEbv.exit.thread9 ], [ %.pre10.pre, %._ZNKR32pxrInternal_v0_24__pxrReserved__7VtValue12UncheckedGetIdEERKT_v.exit_crit_edge ]
  %.0.i.i = phi ptr [ %3, %_ZNK32pxrInternal_v0_24__pxrReserved__7VtValue9IsHoldingIdEEbv.exit.thread9 ], [ %25, %._ZNKR32pxrInternal_v0_24__pxrReserved__7VtValue12UncheckedGetIdEERKT_v.exit_crit_edge ]
  %26 = load double, ptr %.0.i.i, align 8
  br label %_ZNK32pxrInternal_v0_24__pxrReserved__7VtValue9IsHoldingIdEEbv.exit.thread

27:                                               ; preds = %20, %16
  %28 = landingpad { ptr, i32 }
          cleanup
  call void @_ZN32pxrInternal_v0_24__pxrReserved__7VtValueD2Ev(ptr noundef nonnull align 8 dereferenceable(16) %3) #29
  resume { ptr, i32 } %28

_ZNK32pxrInternal_v0_24__pxrReserved__7VtValue9IsHoldingIdEEbv.exit.thread: ; preds = %14, %_ZNK32pxrInternal_v0_24__pxrReserved__7VtValue9IsHoldingIdEEbv.exit, %_ZNKR32pxrInternal_v0_24__pxrReserved__7VtValue12UncheckedGetIdEERKT_v.exit
  %29 = phi ptr [ %.pre10, %_ZNKR32pxrInternal_v0_24__pxrReserved__7VtValue12UncheckedGetIdEERKT_v.exit ], [ %.pre11, %_ZNK32pxrInternal_v0_24__pxrReserved__7VtValue9IsHoldingIdEEbv.exit ], [ %6, %14 ]
  %.0 = phi double [ %26, %_ZNKR32pxrInternal_v0_24__pxrReserved__7VtValue12UncheckedGetIdEERKT_v.exit ], [ 0.000000e+00, %_ZNK32pxrInternal_v0_24__pxrReserved__7VtValue9IsHoldingIdEEbv.exit ], [ 0.000000e+00, %14 ]
  %30 = ptrtoint ptr %29 to i64
  %.not.i.i8 = icmp eq ptr %29, null
  %31 = and i64 %30, 3
  %32 = icmp eq i64 %31, 3
  %or.cond.i.i = or i1 %.not.i.i8, %32
  br i1 %or.cond.i.i, label %_ZN32pxrInternal_v0_24__pxrReserved__7VtValueD2Ev.exit, label %33

33:                                               ; preds = %_ZNK32pxrInternal_v0_24__pxrReserved__7VtValue9IsHoldingIdEEbv.exit.thread
  %34 = and i64 %30, -8
  %35 = inttoptr i64 %34 to ptr
  %36 = getelementptr inbounds nuw i8, ptr %35, i64 32
  %37 = load ptr, ptr %36, align 8
  invoke void %37(ptr noundef nonnull align 8 dereferenceable(16) %3)
          to label %_ZN32pxrInternal_v0_24__pxrReserved__7VtValueD2Ev.exit unwind label %38

38:                                               ; preds = %33
  %39 = landingpad { ptr, i32 }
          catch ptr null
  %40 = extractvalue { ptr, i32 } %39, 0
  call void @__clang_call_terminate(ptr %40) #30
  unreachable

_ZN32pxrInternal_v0_24__pxrReserved__7VtValueD2Ev.exit: ; preds = %2, %_ZNK32pxrInternal_v0_24__pxrReserved__7VtValue9IsHoldingIdEEbv.exit.thread, %33
  %.016 = phi double [ %.0, %_ZNK32pxrInternal_v0_24__pxrReserved__7VtValue9IsHoldingIdEEbv.exit.thread ], [ %.0, %33 ], [ 0.000000e+00, %2 ]
  ret double %.016
}